; Function Attrs: nounwind uwtable
define ptr @l_Lean_modToFilePath_go(ptr noundef %0, ptr noundef %1) local_unnamed_addr #0 {
  %3 = ptrtoint ptr %1 to i64
  %4 = and i64 %3, 1
  %.not.i = icmp eq i64 %4, 0
  br i1 %.not.i, label %8, label %5

5:                                                ; preds = %2
  %6 = lshr i64 %3, 1
  %7 = trunc i64 %6 to i32
  br label %lean_obj_tag.exit

8:                                                ; preds = %2
  %9 = getelementptr i8, ptr %1, i64 4
  %.val.i = load i32, ptr %9, align 4
  %10 = lshr i32 %.val.i, 24
  br label %lean_obj_tag.exit

lean_obj_tag.exit:                                ; preds = %5, %8
  %.0.i = phi i32 [ %7, %5 ], [ %10, %8 ]
  switch i32 %.0.i, label %27 [
    i32 0, label %11
    i32 1, label %20
  ]

11:                                               ; preds = %lean_obj_tag.exit
  %12 = ptrtoint ptr %0 to i64
  %13 = and i64 %12, 1
  %.not = icmp eq i64 %13, 0
  br i1 %.not, label %14, label %common.ret15

14:                                               ; preds = %11
  %.val.i13 = load i32, ptr %0, align 4, !tbaa !10
  %15 = icmp sgt i32 %.val.i13, 0
  br i1 %15, label %16, label %18, !prof !13

16:                                               ; preds = %14
  %17 = add nuw i32 %.val.i13, 1
  store i32 %17, ptr %0, align 4, !tbaa !10
  br label %common.ret15

18:                                               ; preds = %14
  %.not.i14 = icmp eq i32 %.val.i13, 0
  br i1 %.not.i14, label %common.ret15, label %19

19:                                               ; preds = %18
  tail call void @lean_inc_ref_cold(ptr noundef nonnull %0) #4
  br label %common.ret15

common.ret15:                                     ; preds = %11, %16, %18, %19, %27, %20
  %common.ret15.op = phi ptr [ %26, %20 ], [ %30, %27 ], [ %0, %19 ], [ %0, %18 ], [ %0, %16 ], [ %0, %11 ]
  ret ptr %common.ret15.op

20:                                               ; preds = %lean_obj_tag.exit
  %21 = getelementptr inbounds nuw i8, ptr %1, i64 8
  %22 = load ptr, ptr %21, align 8, !tbaa !4
  %23 = getelementptr inbounds nuw i8, ptr %1, i64 16
  %24 = load ptr, ptr %23, align 8, !tbaa !4
  %25 = tail call ptr @l_Lean_modToFilePath_go(ptr noundef %0, ptr noundef %22)
  %26 = tail call ptr @l_System_FilePath_join(ptr noundef %25, ptr noundef %24) #4
  br label %common.ret15

27:                                               ; preds = %lean_obj_tag.exit
  %28 = load ptr, ptr @l_Lean_modToFilePath_go___closed__4, align 8, !tbaa !4
  %29 = load ptr, ptr @l_System_instInhabitedFilePath, align 8, !tbaa !4
  %30 = tail call ptr @lean_panic_fn(ptr noundef %29, ptr noundef %28) #4
  br label %common.ret15
}